target datalayout = "e-m:e-p270:32:32-p271:32:32-p272:64:64-i64:64-i128:128-f80:128-n8:16:32:64-S128"
target triple = "x86_64-pc-linux-gnu"

%"class.std::__cxx11::basic_string" = type { %"struct.std::__cxx11::basic_string<char>::_Alloc_hider", i64, %union.anon }
%"struct.std::__cxx11::basic_string<char>::_Alloc_hider" = type { ptr }
%union.anon = type { i64, [8 x i8] }
%class.cmCPackIFWRepository = type { %class.cmCPackIFWCommon, %"class.std::__cxx11::basic_string", i32, %"class.std::__cxx11::basic_string", %"class.std::__cxx11::basic_string", %"class.std::__cxx11::basic_string", %"class.std::__cxx11::basic_string", %"class.std::__cxx11::basic_string", %"class.std::__cxx11::basic_string", %"class.std::__cxx11::basic_string", %"class.std::vector", %"class.std::__cxx11::basic_string" }
%class.cmCPackIFWCommon = type { ptr }
%"class.std::vector" = type { %"struct.std::_Vector_base" }
%"struct.std::_Vector_base" = type { %"struct.std::_Vector_base<cmCPackIFWRepository *, std::allocator<cmCPackIFWRepository *>>::_Vector_impl" }
%"struct.std::_Vector_base<cmCPackIFWRepository *, std::allocator<cmCPackIFWRepository *>>::_Vector_impl" = type { %"struct.std::_Vector_base<cmCPackIFWRepository *, std::allocator<cmCPackIFWRepository *>>::_Vector_impl_data" }
%"struct.std::_Vector_base<cmCPackIFWRepository *, std::allocator<cmCPackIFWRepository *>>::_Vector_impl_data" = type { ptr, ptr, ptr }

; Function Attrs: mustprogress nounwind uwtable
define dso_local noundef zeroext i1 @_ZNK20cmCPackIFWRepository7IsValidEv(ptr noundef nonnull align 8 dereferenceable(328) %0) #5 align 2 {
  %2 = alloca ptr, align 8
  %3 = alloca i8, align 1
  store ptr %0, ptr %2, align 8
  %4 = load ptr, ptr %2, align 8
  store i8 1, ptr %3, align 1
  %5 = getelementptr inbounds %class.cmCPackIFWRepository, ptr %4, i32 0, i32 2
  %6 = load i32, ptr %5, align 8
  switch i32 %6, label %22 [
    i32 0, label %7
    i32 1, label %7
    i32 2, label %7
    i32 3, label %12
  ]

7:                                                ; preds = %1, %1, %1
  %8 = getelementptr inbounds %class.cmCPackIFWRepository, ptr %4, i32 0, i32 3
  %9 = call noundef zeroext i1 @_ZNKSt7__cxx1112basic_stringIcSt11char_traitsIcESaIcEE5emptyEv(ptr noundef nonnull align 8 dereferenceable(32) %8) #3
  %10 = xor i1 %9, true
  %11 = zext i1 %10 to i8
  store i8 %11, ptr %3, align 1
  br label %22

12:                                               ; preds = %1
  %13 = getelementptr inbounds %class.cmCPackIFWRepository, ptr %4, i32 0, i32 4
  %14 = call noundef zeroext i1 @_ZNKSt7__cxx1112basic_stringIcSt11char_traitsIcESaIcEE5emptyEv(ptr noundef nonnull align 8 dereferenceable(32) %13) #3
  br i1 %14, label %19, label %15

15:                                               ; preds = %12
  %16 = getelementptr inbounds %class.cmCPackIFWRepository, ptr %4, i32 0, i32 5
  %17 = call noundef zeroext i1 @_ZNKSt7__cxx1112basic_stringIcSt11char_traitsIcESaIcEE5emptyEv(ptr noundef nonnull align 8 dereferenceable(32) %16) #3
  %18 = xor i1 %17, true
  br label %19

19:                                               ; preds = %15, %12
  %20 = phi i1 [ false, %12 ], [ %18, %15 ]
  %21 = zext i1 %20 to i8
  store i8 %21, ptr %3, align 1
  br label %22

22:                                               ; preds = %19, %7, %1
  %23 = load i8, ptr %3, align 1
  %24 = trunc i8 %23 to i1
  ret i1 %24
}