; Function Attrs: mustprogress nounwind uwtable
define dso_local noundef zeroext i1 @_ZNK20cmCPackIFWRepository7IsValidEv(ptr noundef nonnull align 8 dereferenceable(328) %0) local_unnamed_addr #4 align 2 {
  %2 = getelementptr inbounds i8, ptr %0, i64 40
  %3 = load i32, ptr %2, align 8
  switch i32 %3, label %10 [
    i32 0, label %.sink.split
    i32 1, label %.sink.split
    i32 2, label %.sink.split
    i32 3, label %4
  ]

4:                                                ; preds = %1
  %5 = getelementptr inbounds i8, ptr %0, i64 80
  %6 = tail call noundef zeroext i1 @_ZNKSt7__cxx1112basic_stringIcSt11char_traitsIcESaIcEE5emptyEv(ptr noundef nonnull align 8 dereferenceable(32) %5) #11
  br i1 %6, label %10, label %.sink.split

.sink.split:                                      ; preds = %4, %1, %1, %1
  %.sink = phi i64 [ 48, %1 ], [ 48, %1 ], [ 48, %1 ], [ 112, %4 ]
  %7 = getelementptr inbounds i8, ptr %0, i64 %.sink
  %8 = tail call noundef zeroext i1 @_ZNKSt7__cxx1112basic_stringIcSt11char_traitsIcESaIcEE5emptyEv(ptr noundef nonnull align 8 dereferenceable(32) %7) #11
  %9 = xor i1 %8, true
  br label %10

10:                                               ; preds = %.sink.split, %4, %1
  %.0 = phi i1 [ true, %1 ], [ false, %4 ], [ %9, %.sink.split ]
  ret i1 %.0
}